target datalayout = "e-m:e-p270:32:32-p271:32:32-p272:64:64-i64:64-i128:128-f80:128-n8:16:32:64-S128"
target triple = "x86_64-pc-linux-gnu"

%struct.OSSL_TIME = type { i64 }
%struct.crypto_ex_data_st = type { ptr, ptr }
%struct.CRYPTO_REF_COUNT = type { i32 }
%struct.ssl_st = type { i32, ptr, ptr, ptr, %struct.CRYPTO_REF_COUNT, ptr, %struct.crypto_ex_data_st }
%struct.ssl_connection_st = type { %struct.ssl_st, ptr, i32, ptr, ptr, ptr, i32, ptr, i32, i32, i32, i32, %struct.OSSL_TIME, %struct.OSSL_TIME, %struct.ossl_statem_st, i32, ptr, ptr, i64, i64, i64, %struct.ossl_quic_tls_callbacks_st, ptr, ptr, %struct.anon.0, ptr, ptr, ptr, i32, ptr, %struct.ssl_dane_st, ptr, ptr, ptr, ptr, i32, [64 x i8], [64 x i8], [64 x i8], [64 x i8], [64 x i8], [64 x i8], [64 x i8], [64 x i8], [64 x i8], [64 x i8], [64 x i8], [64 x i8], ptr, [64 x i8], i64, i32, i64, [32 x i8], ptr, ptr, ptr, i64, ptr, [32 x i8], i64, i32, ptr, ptr, i32, i32, ptr, ptr, ptr, ptr, ptr, i64, ptr, ptr, i64, i32, i32, i32, i64, i32, i32, i64, i64, i64, %struct.anon.2, ptr, i32, ptr, ptr, ptr, i32, ptr, ptr, ptr, i32, i32, i32, i32, ptr, i64, i32, ptr, %struct.srp_ctx_st, ptr, %struct.record_layer_st, ptr, ptr, ptr, ptr, i64, i32, i32, i32, i64, i64, i64, ptr, ptr, ptr, ptr, ptr, i64, ptr, i64, ptr, i64 }
%struct.ossl_statem_st = type { i32, i32, i32, i32, i32, i32, i32, i32, i32, i32, i32, i32, i32, ptr, ptr, ptr, i8 }
%struct.ossl_quic_tls_callbacks_st = type { ptr, ptr, ptr, ptr, ptr, ptr }
%struct.anon.0 = type { i64, [32 x i8], [32 x i8], ptr, ptr, i32, i32, i32, i32, [2 x i8], i32, i32, i32, i32, %struct.anon.1, [64 x i8], i64, [64 x i8], i64, i32, i32, ptr, i64, ptr, i64, i32, i8, i8, i16, ptr, i16 }
%struct.anon.1 = type { [128 x i8], i64, [128 x i8], i64, i64, i32, ptr, ptr, [4 x ptr], [4 x i16], i64, i32, ptr, i64, ptr, i64, ptr, ptr, ptr, i32, i64, ptr, i32, ptr, i64, ptr, i64, ptr, i64, ptr, ptr, ptr, ptr, i64, i64, ptr, ptr, i32, i32, i32, i32 }
%struct.ssl_dane_st = type { ptr, ptr, ptr, ptr, ptr, i32, i32, i32, i64 }
%struct.anon.2 = type { [29 x i8], ptr, ptr, ptr, i32, ptr, i16, i32, %struct.anon.3, i32, i32, i64, ptr, i64, ptr, i64, ptr, i64, ptr, i64, ptr, i64, ptr, ptr, ptr, ptr, ptr, ptr, ptr, i64, ptr, i64, i32, i32, i32, i32, ptr, i64, i32, i8, i32, [4 x i32], i32, i8, i8, i8, i8 }
%struct.anon.3 = type { ptr, ptr, ptr, i64 }
%struct.srp_ctx_st = type { ptr, ptr, ptr, ptr, ptr, ptr, ptr, ptr, ptr, ptr, ptr, ptr, ptr, ptr, i32, i64 }
%struct.record_layer_st = type { ptr, ptr, ptr, ptr, ptr, ptr, ptr, ptr, i64, i32, i64, [4 x i8], i64, i64, i8, ptr, i32, ptr, ptr, ptr, i64, i64, i64, i64, [32 x %struct.tls_record_st] }
%struct.tls_record_st = type { ptr, i32, i8, ptr, ptr, i64, i64, i16, [8 x i8] }
%struct.tls_session_ticket_ext_st = type { i16, ptr }

@.str = private unnamed_addr constant [26 x i8] c"../openssl/ssl/ssl_sess.c\00", align 1

; Function Attrs: nounwind uwtable
define i32 @SSL_set_session_ticket_ext(ptr noundef %0, ptr noundef %1, i32 noundef %2) #0 {
  %4 = alloca i32, align 4
  %5 = alloca ptr, align 8
  %6 = alloca ptr, align 8
  %7 = alloca i32, align 4
  %8 = alloca ptr, align 8
  %9 = alloca i32, align 4
  store ptr %0, ptr %5, align 8, !tbaa !15
  store ptr %1, ptr %6, align 8, !tbaa !78
  store i32 %2, ptr %7, align 4, !tbaa !11
  call void @llvm.lifetime.start.p0(i64 8, ptr %8) #9
  %10 = load ptr, ptr %5, align 8, !tbaa !15
  %11 = icmp eq ptr %10, null
  br i1 %11, label %12, label %13

12:                                               ; preds = %3
  br label %34

13:                                               ; preds = %3
  %14 = load ptr, ptr %5, align 8, !tbaa !15
  %15 = getelementptr inbounds nuw %struct.ssl_st, ptr %14, i32 0, i32 0
  %16 = load i32, ptr %15, align 8, !tbaa !17
  %17 = icmp eq i32 %16, 0
  br i1 %17, label %18, label %20

18:                                               ; preds = %13
  %19 = load ptr, ptr %5, align 8, !tbaa !15
  br label %32

20:                                               ; preds = %13
  %21 = load ptr, ptr %5, align 8, !tbaa !15
  %22 = getelementptr inbounds nuw %struct.ssl_st, ptr %21, i32 0, i32 0
  %23 = load i32, ptr %22, align 8, !tbaa !17
  %24 = and i32 %23, 128
  %25 = icmp ne i32 %24, 0
  br i1 %25, label %26, label %29

26:                                               ; preds = %20
  %27 = load ptr, ptr %5, align 8, !tbaa !15
  %28 = call ptr @ossl_quic_obj_get0_handshake_layer(ptr noundef %27)
  br label %30

29:                                               ; preds = %20
  br label %30

30:                                               ; preds = %29, %26
  %31 = phi ptr [ %28, %26 ], [ null, %29 ]
  br label %32

32:                                               ; preds = %30, %18
  %33 = phi ptr [ %19, %18 ], [ %31, %30 ]
  br label %34

34:                                               ; preds = %32, %12
  %35 = phi ptr [ null, %12 ], [ %33, %32 ]
  store ptr %35, ptr %8, align 8, !tbaa !25
  %36 = load ptr, ptr %8, align 8, !tbaa !25
  %37 = icmp eq ptr %36, null
  br i1 %37, label %38, label %39

38:                                               ; preds = %34
  store i32 0, ptr %4, align 4
  store i32 1, ptr %9, align 4
  br label %108

39:                                               ; preds = %34
  %40 = load ptr, ptr %8, align 8, !tbaa !25
  %41 = getelementptr inbounds nuw %struct.ssl_connection_st, ptr %40, i32 0, i32 2
  %42 = load i32, ptr %41, align 8, !tbaa !106
  %43 = icmp sge i32 %42, 769
  br i1 %43, label %44, label %107

44:                                               ; preds = %39
  %45 = load ptr, ptr %8, align 8, !tbaa !25
  %46 = getelementptr inbounds nuw %struct.ssl_connection_st, ptr %45, i32 0, i32 84
  %47 = getelementptr inbounds nuw %struct.anon.2, ptr %46, i32 0, i32 23
  %48 = load ptr, ptr %47, align 8, !tbaa !175
  call void @CRYPTO_free(ptr noundef %48, ptr noundef @.str, i32 noundef 1175)
  %49 = load ptr, ptr %8, align 8, !tbaa !25
  %50 = getelementptr inbounds nuw %struct.ssl_connection_st, ptr %49, i32 0, i32 84
  %51 = getelementptr inbounds nuw %struct.anon.2, ptr %50, i32 0, i32 23
  store ptr null, ptr %51, align 8, !tbaa !175
  %52 = load i32, ptr %7, align 4, !tbaa !11
  %53 = sext i32 %52 to i64
  %54 = add i64 16, %53
  %55 = call noalias ptr @CRYPTO_malloc(i64 noundef %54, ptr noundef @.str, i32 noundef 1178)
  %56 = load ptr, ptr %8, align 8, !tbaa !25
  %57 = getelementptr inbounds nuw %struct.ssl_connection_st, ptr %56, i32 0, i32 84
  %58 = getelementptr inbounds nuw %struct.anon.2, ptr %57, i32 0, i32 23
  store ptr %55, ptr %58, align 8, !tbaa !175
  %59 = load ptr, ptr %8, align 8, !tbaa !25
  %60 = getelementptr inbounds nuw %struct.ssl_connection_st, ptr %59, i32 0, i32 84
  %61 = getelementptr inbounds nuw %struct.anon.2, ptr %60, i32 0, i32 23
  %62 = load ptr, ptr %61, align 8, !tbaa !175
  %63 = icmp eq ptr %62, null
  br i1 %63, label %64, label %65

64:                                               ; preds = %44
  store i32 0, ptr %4, align 4
  store i32 1, ptr %9, align 4
  br label %108

65:                                               ; preds = %44
  %66 = load ptr, ptr %6, align 8, !tbaa !78
  %67 = icmp ne ptr %66, null
  br i1 %67, label %68, label %95

68:                                               ; preds = %65
  %69 = load i32, ptr %7, align 4, !tbaa !11
  %70 = trunc i32 %69 to i16
  %71 = load ptr, ptr %8, align 8, !tbaa !25
  %72 = getelementptr inbounds nuw %struct.ssl_connection_st, ptr %71, i32 0, i32 84
  %73 = getelementptr inbounds nuw %struct.anon.2, ptr %72, i32 0, i32 23
  %74 = load ptr, ptr %73, align 8, !tbaa !175
  %75 = getelementptr inbounds nuw %struct.tls_session_ticket_ext_st, ptr %74, i32 0, i32 0
  store i16 %70, ptr %75, align 8, !tbaa !176
  %76 = load ptr, ptr %8, align 8, !tbaa !25
  %77 = getelementptr inbounds nuw %struct.ssl_connection_st, ptr %76, i32 0, i32 84
  %78 = getelementptr inbounds nuw %struct.anon.2, ptr %77, i32 0, i32 23
  %79 = load ptr, ptr %78, align 8, !tbaa !175
  %80 = getelementptr inbounds %struct.tls_session_ticket_ext_st, ptr %79, i64 1
  %81 = load ptr, ptr %8, align 8, !tbaa !25
  %82 = getelementptr inbounds nuw %struct.ssl_connection_st, ptr %81, i32 0, i32 84
  %83 = getelementptr inbounds nuw %struct.anon.2, ptr %82, i32 0, i32 23
  %84 = load ptr, ptr %83, align 8, !tbaa !175
  %85 = getelementptr inbounds nuw %struct.tls_session_ticket_ext_st, ptr %84, i32 0, i32 1
  store ptr %80, ptr %85, align 8, !tbaa !178
  %86 = load ptr, ptr %8, align 8, !tbaa !25
  %87 = getelementptr inbounds nuw %struct.ssl_connection_st, ptr %86, i32 0, i32 84
  %88 = getelementptr inbounds nuw %struct.anon.2, ptr %87, i32 0, i32 23
  %89 = load ptr, ptr %88, align 8, !tbaa !175
  %90 = getelementptr inbounds nuw %struct.tls_session_ticket_ext_st, ptr %89, i32 0, i32 1
  %91 = load ptr, ptr %90, align 8, !tbaa !178
  %92 = load ptr, ptr %6, align 8, !tbaa !78
  %93 = load i32, ptr %7, align 4, !tbaa !11
  %94 = sext i32 %93 to i64
  call void @llvm.memcpy.p0.p0.i64(ptr align 1 %91, ptr align 1 %92, i64 %94, i1 false)
  br label %106

95:                                               ; preds = %65
  %96 = load ptr, ptr %8, align 8, !tbaa !25
  %97 = getelementptr inbounds nuw %struct.ssl_connection_st, ptr %96, i32 0, i32 84
  %98 = getelementptr inbounds nuw %struct.anon.2, ptr %97, i32 0, i32 23
  %99 = load ptr, ptr %98, align 8, !tbaa !175
  %100 = getelementptr inbounds nuw %struct.tls_session_ticket_ext_st, ptr %99, i32 0, i32 0
  store i16 0, ptr %100, align 8, !tbaa !176
  %101 = load ptr, ptr %8, align 8, !tbaa !25
  %102 = getelementptr inbounds nuw %struct.ssl_connection_st, ptr %101, i32 0, i32 84
  %103 = getelementptr inbounds nuw %struct.anon.2, ptr %102, i32 0, i32 23
  %104 = load ptr, ptr %103, align 8, !tbaa !175
  %105 = getelementptr inbounds nuw %struct.tls_session_ticket_ext_st, ptr %104, i32 0, i32 1
  store ptr null, ptr %105, align 8, !tbaa !178
  br label %106

106:                                              ; preds = %95, %68
  store i32 1, ptr %4, align 4
  store i32 1, ptr %9, align 4
  br label %108

107:                                              ; preds = %39
  store i32 0, ptr %4, align 4
  store i32 1, ptr %9, align 4
  br label %108

108:                                              ; preds = %107, %106, %64, %38
  call void @llvm.lifetime.end.p0(i64 8, ptr %8) #9
  %109 = load i32, ptr %4, align 4
  ret i32 %109
}