; Function Attrs: nounwind uwtable
define range(i32 0, 2) i32 @SSL_set_session_ticket_ext(ptr noundef %0, ptr noundef readonly captures(address_is_null) %1, i32 noundef %2) local_unnamed_addr #3 {
  %4 = icmp eq ptr %0, null
  br i1 %4, label %.thread, label %5

5:                                                ; preds = %3
  %6 = load i32, ptr %0, align 8, !tbaa !7
  %7 = icmp eq i32 %6, 0
  br i1 %7, label %.thread28, label %8

8:                                                ; preds = %5
  %9 = and i32 %6, 128
  %.not = icmp eq i32 %9, 0
  br i1 %.not, label %.thread, label %10

10:                                               ; preds = %8
  %11 = tail call ptr @ossl_quic_obj_get0_handshake_layer(ptr noundef nonnull %0) #11
  %12 = icmp eq ptr %11, null
  br i1 %12, label %.thread, label %.thread28

.thread28:                                        ; preds = %5, %10
  %13 = phi ptr [ %11, %10 ], [ %0, %5 ]
  %14 = getelementptr inbounds nuw i8, ptr %13, i64 72
  %15 = load i32, ptr %14, align 8, !tbaa !95
  %16 = icmp sgt i32 %15, 768
  br i1 %16, label %17, label %.thread

17:                                               ; preds = %.thread28
  %18 = getelementptr inbounds nuw i8, ptr %13, i64 2760
  %19 = load ptr, ptr %18, align 8, !tbaa !164
  tail call void @CRYPTO_free(ptr noundef %19, ptr noundef nonnull @.str, i32 noundef 1175) #11
  store ptr null, ptr %18, align 8, !tbaa !164
  %20 = sext i32 %2 to i64
  %21 = add nsw i64 %20, 16
  %22 = tail call noalias ptr @CRYPTO_malloc(i64 noundef %21, ptr noundef nonnull @.str, i32 noundef 1178) #11
  store ptr %22, ptr %18, align 8, !tbaa !164
  %23 = icmp eq ptr %22, null
  br i1 %23, label %.thread, label %24

24:                                               ; preds = %17
  %.not27 = icmp eq ptr %1, null
  br i1 %.not27, label %29, label %25

25:                                               ; preds = %24
  %26 = trunc i32 %2 to i16
  store i16 %26, ptr %22, align 8, !tbaa !165
  %27 = getelementptr inbounds nuw i8, ptr %22, i64 16
  %28 = getelementptr inbounds nuw i8, ptr %22, i64 8
  store ptr %27, ptr %28, align 8, !tbaa !167
  tail call void @llvm.memcpy.p0.p0.i64(ptr nonnull align 1 %27, ptr nonnull align 1 %1, i64 %20, i1 false)
  br label %.thread

29:                                               ; preds = %24
  store i16 0, ptr %22, align 8, !tbaa !165
  %30 = getelementptr inbounds nuw i8, ptr %22, i64 8
  store ptr null, ptr %30, align 8, !tbaa !167
  br label %.thread

.thread:                                          ; preds = %8, %3, %.thread28, %25, %29, %17, %10
  %.0 = phi i32 [ 0, %10 ], [ 0, %17 ], [ 1, %29 ], [ 1, %25 ], [ 0, %.thread28 ], [ 0, %3 ], [ 0, %8 ]
  ret i32 %.0
}